target datalayout = "e-m:e-p270:32:32-p271:32:32-p272:64:64-i64:64-i128:128-f80:128-n8:16:32:64-S128"
target triple = "x86_64-pc-linux-gnu"

%struct.ZSTD_BuildCTableWksp = type { [53 x i16], [285 x i32] }

; Function Attrs: nounwind uwtable
define internal i32 @ZSTD_useLowProbCount(i64 noundef %0) #0 {
  %2 = alloca i64, align 8
  store i64 %0, ptr %2, align 8, !tbaa !11
  %3 = load i64, ptr %2, align 8, !tbaa !11
  %4 = icmp uge i64 %3, 2048
  %5 = zext i1 %4 to i32
  ret i32 %5
}

; Function Attrs: nounwind uwtable
define internal i32 @ERR_isError(i64 noundef %0) #0 {
  %2 = alloca i64, align 8
  store i64 %0, ptr %2, align 8, !tbaa !11
  %3 = load i64, ptr %2, align 8, !tbaa !11
  %4 = icmp ugt i64 %3, -120
  %5 = zext i1 %4 to i32
  ret i32 %5
}

; Function Attrs: nounwind uwtable
define dso_local i64 @ZSTD_buildCTable(ptr noundef %0, i64 noundef %1, ptr noundef %2, i32 noundef %3, i32 noundef %4, ptr noundef %5, i32 noundef %6, ptr noundef %7, i64 noundef %8, ptr noundef %9, i32 noundef %10, i32 noundef %11, ptr noundef %12, i64 noundef %13, ptr noundef %14, i64 noundef %15) #0 {
  %17 = alloca i64, align 8
  %18 = alloca ptr, align 8
  %19 = alloca i64, align 8
  %20 = alloca ptr, align 8
  %21 = alloca i32, align 4
  %22 = alloca i32, align 4
  %23 = alloca ptr, align 8
  %24 = alloca i32, align 4
  %25 = alloca ptr, align 8
  %26 = alloca i64, align 8
  %27 = alloca ptr, align 8
  %28 = alloca i32, align 4
  %29 = alloca i32, align 4
  %30 = alloca ptr, align 8
  %31 = alloca i64, align 8
  %32 = alloca ptr, align 8
  %33 = alloca i64, align 8
  %34 = alloca ptr, align 8
  %35 = alloca ptr, align 8
  %36 = alloca i64, align 8
  %37 = alloca i32, align 4
  %38 = alloca i64, align 8
  %39 = alloca ptr, align 8
  %40 = alloca i64, align 8
  %41 = alloca i32, align 4
  %42 = alloca i64, align 8
  %43 = alloca i64, align 8
  %44 = alloca i64, align 8
  %45 = alloca i64, align 8
  store ptr %0, ptr %18, align 8, !tbaa !18
  store i64 %1, ptr %19, align 8, !tbaa !11
  store ptr %2, ptr %20, align 8, !tbaa !4
  store i32 %3, ptr %21, align 4, !tbaa !9
  store i32 %4, ptr %22, align 4, !tbaa !9
  store ptr %5, ptr %23, align 8, !tbaa !4
  store i32 %6, ptr %24, align 4, !tbaa !9
  store ptr %7, ptr %25, align 8, !tbaa !29
  store i64 %8, ptr %26, align 8, !tbaa !11
  store ptr %9, ptr %27, align 8, !tbaa !19
  store i32 %10, ptr %28, align 4, !tbaa !9
  store i32 %11, ptr %29, align 4, !tbaa !9
  store ptr %12, ptr %30, align 8, !tbaa !4
  store i64 %13, ptr %31, align 8, !tbaa !11
  store ptr %14, ptr %32, align 8, !tbaa !18
  store i64 %15, ptr %33, align 8, !tbaa !11
  call void @llvm.lifetime.start.p0(i64 8, ptr %34) #7
  %46 = load ptr, ptr %18, align 8, !tbaa !18
  store ptr %46, ptr %34, align 8, !tbaa !29
  call void @llvm.lifetime.start.p0(i64 8, ptr %35) #7
  %47 = load ptr, ptr %34, align 8, !tbaa !29
  %48 = load i64, ptr %19, align 8, !tbaa !11
  %49 = getelementptr inbounds nuw i8, ptr %47, i64 %48
  store ptr %49, ptr %35, align 8, !tbaa !29
  %50 = load i32, ptr %22, align 4, !tbaa !9
  switch i32 %50, label %203 [
    i32 1, label %51
    i32 3, label %76
    i32 0, label %80
    i32 2, label %100
  ]

51:                                               ; preds = %16
  br label %52

52:                                               ; preds = %51
  call void @llvm.lifetime.start.p0(i64 8, ptr %36) #7
  %53 = load ptr, ptr %20, align 8, !tbaa !4
  %54 = load i32, ptr %24, align 4, !tbaa !9
  %55 = trunc i32 %54 to i8
  %56 = call i64 @FSE_buildCTable_rle(ptr noundef %53, i8 noundef zeroext %55)
  store i64 %56, ptr %36, align 8, !tbaa !11
  %57 = load i64, ptr %36, align 8, !tbaa !11
  %58 = call i32 @ERR_isError(i64 noundef %57)
  %59 = icmp ne i32 %58, 0
  br i1 %59, label %60, label %62

60:                                               ; preds = %52
  %61 = load i64, ptr %36, align 8, !tbaa !11
  store i64 %61, ptr %17, align 8
  store i32 1, ptr %37, align 4
  br label %63

62:                                               ; preds = %52
  store i32 0, ptr %37, align 4
  br label %63

63:                                               ; preds = %62, %60
  call void @llvm.lifetime.end.p0(i64 8, ptr %36) #7
  %64 = load i32, ptr %37, align 4
  switch i32 %64, label %208 [
    i32 0, label %65
  ]

65:                                               ; preds = %63
  br label %66

66:                                               ; preds = %65
  br label %67

67:                                               ; preds = %66
  %68 = load i64, ptr %19, align 8, !tbaa !11
  %69 = icmp eq i64 %68, 0
  br i1 %69, label %70, label %71

70:                                               ; preds = %67
  store i64 -70, ptr %17, align 8
  store i32 1, ptr %37, align 4
  br label %208

71:                                               ; preds = %67
  %72 = load ptr, ptr %25, align 8, !tbaa !29
  %73 = getelementptr inbounds i8, ptr %72, i64 0
  %74 = load i8, ptr %73, align 1, !tbaa !31
  %75 = load ptr, ptr %34, align 8, !tbaa !29
  store i8 %74, ptr %75, align 1, !tbaa !31
  store i64 1, ptr %17, align 8
  store i32 1, ptr %37, align 4
  br label %208

76:                                               ; preds = %16
  %77 = load ptr, ptr %20, align 8, !tbaa !4
  %78 = load ptr, ptr %30, align 8, !tbaa !4
  %79 = load i64, ptr %31, align 8, !tbaa !11
  call void @llvm.memcpy.p0.p0.i64(ptr align 4 %77, ptr align 4 %78, i64 %79, i1 false)
  store i64 0, ptr %17, align 8
  store i32 1, ptr %37, align 4
  br label %208

80:                                               ; preds = %16
  br label %81

81:                                               ; preds = %80
  call void @llvm.lifetime.start.p0(i64 8, ptr %38) #7
  %82 = load ptr, ptr %20, align 8, !tbaa !4
  %83 = load ptr, ptr %27, align 8, !tbaa !19
  %84 = load i32, ptr %29, align 4, !tbaa !9
  %85 = load i32, ptr %28, align 4, !tbaa !9
  %86 = load ptr, ptr %32, align 8, !tbaa !18
  %87 = load i64, ptr %33, align 8, !tbaa !11
  %88 = call i64 @FSE_buildCTable_wksp(ptr noundef %82, ptr noundef %83, i32 noundef %84, i32 noundef %85, ptr noundef %86, i64 noundef %87)
  store i64 %88, ptr %38, align 8, !tbaa !11
  %89 = load i64, ptr %38, align 8, !tbaa !11
  %90 = call i32 @ERR_isError(i64 noundef %89)
  %91 = icmp ne i32 %90, 0
  br i1 %91, label %92, label %94

92:                                               ; preds = %81
  %93 = load i64, ptr %38, align 8, !tbaa !11
  store i64 %93, ptr %17, align 8
  store i32 1, ptr %37, align 4
  br label %95

94:                                               ; preds = %81
  store i32 0, ptr %37, align 4
  br label %95

95:                                               ; preds = %94, %92
  call void @llvm.lifetime.end.p0(i64 8, ptr %38) #7
  %96 = load i32, ptr %37, align 4
  switch i32 %96, label %208 [
    i32 0, label %97
  ]

97:                                               ; preds = %95
  br label %98

98:                                               ; preds = %97
  br label %99

99:                                               ; preds = %98
  store i64 0, ptr %17, align 8
  store i32 1, ptr %37, align 4
  br label %208

100:                                              ; preds = %16
  call void @llvm.lifetime.start.p0(i64 8, ptr %39) #7
  %101 = load ptr, ptr %32, align 8, !tbaa !18
  store ptr %101, ptr %39, align 8, !tbaa !18
  call void @llvm.lifetime.start.p0(i64 8, ptr %40) #7
  %102 = load i64, ptr %26, align 8, !tbaa !11
  store i64 %102, ptr %40, align 8, !tbaa !11
  call void @llvm.lifetime.start.p0(i64 4, ptr %41) #7
  %103 = load i32, ptr %21, align 4, !tbaa !9
  %104 = load i64, ptr %26, align 8, !tbaa !11
  %105 = load i32, ptr %24, align 4, !tbaa !9
  %106 = call i32 @FSE_optimalTableLog(i32 noundef %103, i64 noundef %104, i32 noundef %105)
  store i32 %106, ptr %41, align 4, !tbaa !9
  %107 = load ptr, ptr %23, align 8, !tbaa !4
  %108 = load ptr, ptr %25, align 8, !tbaa !29
  %109 = load i64, ptr %26, align 8, !tbaa !11
  %110 = sub i64 %109, 1
  %111 = getelementptr inbounds nuw i8, ptr %108, i64 %110
  %112 = load i8, ptr %111, align 1, !tbaa !31
  %113 = zext i8 %112 to i64
  %114 = getelementptr inbounds nuw i32, ptr %107, i64 %113
  %115 = load i32, ptr %114, align 4, !tbaa !9
  %116 = icmp ugt i32 %115, 1
  br i1 %116, label %117, label %130

117:                                              ; preds = %100
  %118 = load ptr, ptr %23, align 8, !tbaa !4
  %119 = load ptr, ptr %25, align 8, !tbaa !29
  %120 = load i64, ptr %26, align 8, !tbaa !11
  %121 = sub i64 %120, 1
  %122 = getelementptr inbounds nuw i8, ptr %119, i64 %121
  %123 = load i8, ptr %122, align 1, !tbaa !31
  %124 = zext i8 %123 to i64
  %125 = getelementptr inbounds nuw i32, ptr %118, i64 %124
  %126 = load i32, ptr %125, align 4, !tbaa !9
  %127 = add i32 %126, -1
  store i32 %127, ptr %125, align 4, !tbaa !9
  %128 = load i64, ptr %40, align 8, !tbaa !11
  %129 = add i64 %128, -1
  store i64 %129, ptr %40, align 8, !tbaa !11
  br label %130

130:                                              ; preds = %117, %100
  br label %131

131:                                              ; preds = %130
  call void @llvm.lifetime.start.p0(i64 8, ptr %42) #7
  %132 = load ptr, ptr %39, align 8, !tbaa !18
  %133 = getelementptr inbounds nuw %struct.ZSTD_BuildCTableWksp, ptr %132, i32 0, i32 0
  %134 = getelementptr inbounds [53 x i16], ptr %133, i64 0, i64 0
  %135 = load i32, ptr %41, align 4, !tbaa !9
  %136 = load ptr, ptr %23, align 8, !tbaa !4
  %137 = load i64, ptr %40, align 8, !tbaa !11
  %138 = load i32, ptr %24, align 4, !tbaa !9
  %139 = load i64, ptr %40, align 8, !tbaa !11
  %140 = call i32 @ZSTD_useLowProbCount(i64 noundef %139)
  %141 = call i64 @FSE_normalizeCount(ptr noundef %134, i32 noundef %135, ptr noundef %136, i64 noundef %137, i32 noundef %138, i32 noundef %140)
  store i64 %141, ptr %42, align 8, !tbaa !11
  %142 = load i64, ptr %42, align 8, !tbaa !11
  %143 = call i32 @ERR_isError(i64 noundef %142)
  %144 = icmp ne i32 %143, 0
  br i1 %144, label %145, label %147

145:                                              ; preds = %131
  %146 = load i64, ptr %42, align 8, !tbaa !11
  store i64 %146, ptr %17, align 8
  store i32 1, ptr %37, align 4
  br label %148

147:                                              ; preds = %131
  store i32 0, ptr %37, align 4
  br label %148

148:                                              ; preds = %147, %145
  call void @llvm.lifetime.end.p0(i64 8, ptr %42) #7
  %149 = load i32, ptr %37, align 4
  switch i32 %149, label %202 [
    i32 0, label %150
  ]

150:                                              ; preds = %148
  br label %151

151:                                              ; preds = %150
  br label %152

152:                                              ; preds = %151
  call void @llvm.lifetime.start.p0(i64 8, ptr %43) #7
  %153 = load ptr, ptr %34, align 8, !tbaa !29
  %154 = load ptr, ptr %35, align 8, !tbaa !29
  %155 = load ptr, ptr %34, align 8, !tbaa !29
  %156 = ptrtoint ptr %154 to i64
  %157 = ptrtoint ptr %155 to i64
  %158 = sub i64 %156, %157
  %159 = load ptr, ptr %39, align 8, !tbaa !18
  %160 = getelementptr inbounds nuw %struct.ZSTD_BuildCTableWksp, ptr %159, i32 0, i32 0
  %161 = getelementptr inbounds [53 x i16], ptr %160, i64 0, i64 0
  %162 = load i32, ptr %24, align 4, !tbaa !9
  %163 = load i32, ptr %41, align 4, !tbaa !9
  %164 = call i64 @FSE_writeNCount(ptr noundef %153, i64 noundef %158, ptr noundef %161, i32 noundef %162, i32 noundef %163)
  store i64 %164, ptr %43, align 8, !tbaa !11
  br label %165

165:                                              ; preds = %152
  call void @llvm.lifetime.start.p0(i64 8, ptr %44) #7
  %166 = load i64, ptr %43, align 8, !tbaa !11
  store i64 %166, ptr %44, align 8, !tbaa !11
  %167 = load i64, ptr %44, align 8, !tbaa !11
  %168 = call i32 @ERR_isError(i64 noundef %167)
  %169 = icmp ne i32 %168, 0
  br i1 %169, label %170, label %172

170:                                              ; preds = %165
  %171 = load i64, ptr %44, align 8, !tbaa !11
  store i64 %171, ptr %17, align 8
  store i32 1, ptr %37, align 4
  br label %173

172:                                              ; preds = %165
  store i32 0, ptr %37, align 4
  br label %173

173:                                              ; preds = %172, %170
  call void @llvm.lifetime.end.p0(i64 8, ptr %44) #7
  %174 = load i32, ptr %37, align 4
  switch i32 %174, label %201 [
    i32 0, label %175
  ]

175:                                              ; preds = %173
  br label %176

176:                                              ; preds = %175
  br label %177

177:                                              ; preds = %176
  br label %178

178:                                              ; preds = %177
  call void @llvm.lifetime.start.p0(i64 8, ptr %45) #7
  %179 = load ptr, ptr %20, align 8, !tbaa !4
  %180 = load ptr, ptr %39, align 8, !tbaa !18
  %181 = getelementptr inbounds nuw %struct.ZSTD_BuildCTableWksp, ptr %180, i32 0, i32 0
  %182 = getelementptr inbounds [53 x i16], ptr %181, i64 0, i64 0
  %183 = load i32, ptr %24, align 4, !tbaa !9
  %184 = load i32, ptr %41, align 4, !tbaa !9
  %185 = load ptr, ptr %39, align 8, !tbaa !18
  %186 = getelementptr inbounds nuw %struct.ZSTD_BuildCTableWksp, ptr %185, i32 0, i32 1
  %187 = getelementptr inbounds [285 x i32], ptr %186, i64 0, i64 0
  %188 = call i64 @FSE_buildCTable_wksp(ptr noundef %179, ptr noundef %182, i32 noundef %183, i32 noundef %184, ptr noundef %187, i64 noundef 1140)
  store i64 %188, ptr %45, align 8, !tbaa !11
  %189 = load i64, ptr %45, align 8, !tbaa !11
  %190 = call i32 @ERR_isError(i64 noundef %189)
  %191 = icmp ne i32 %190, 0
  br i1 %191, label %192, label %194

192:                                              ; preds = %178
  %193 = load i64, ptr %45, align 8, !tbaa !11
  store i64 %193, ptr %17, align 8
  store i32 1, ptr %37, align 4
  br label %195

194:                                              ; preds = %178
  store i32 0, ptr %37, align 4
  br label %195

195:                                              ; preds = %194, %192
  call void @llvm.lifetime.end.p0(i64 8, ptr %45) #7
  %196 = load i32, ptr %37, align 4
  switch i32 %196, label %201 [
    i32 0, label %197
  ]

197:                                              ; preds = %195
  br label %198

198:                                              ; preds = %197
  br label %199

199:                                              ; preds = %198
  %200 = load i64, ptr %43, align 8, !tbaa !11
  store i64 %200, ptr %17, align 8
  store i32 1, ptr %37, align 4
  br label %201

201:                                              ; preds = %199, %195, %173
  call void @llvm.lifetime.end.p0(i64 8, ptr %43) #7
  br label %202

202:                                              ; preds = %201, %148
  call void @llvm.lifetime.end.p0(i64 4, ptr %41) #7
  call void @llvm.lifetime.end.p0(i64 8, ptr %40) #7
  call void @llvm.lifetime.end.p0(i64 8, ptr %39) #7
  br label %208

203:                                              ; preds = %16
  br label %204

204:                                              ; preds = %203
  store i64 -1, ptr %17, align 8
  store i32 1, ptr %37, align 4
  br label %208

205:                                              ; No predecessors!
  br label %206

206:                                              ; preds = %205
  br label %207

207:                                              ; preds = %206
  store i32 0, ptr %37, align 4
  br label %208

208:                                              ; preds = %207, %204, %202, %99, %95, %76, %71, %70, %63
  call void @llvm.lifetime.end.p0(i64 8, ptr %35) #7
  call void @llvm.lifetime.end.p0(i64 8, ptr %34) #7
  %209 = load i32, ptr %37, align 4
  switch i32 %209, label %212 [
    i32 0, label %210
    i32 1, label %210
  ]

210:                                              ; preds = %208, %208
  %211 = load i64, ptr %17, align 8
  ret i64 %211

212:                                              ; preds = %208
  unreachable
}